; Function Attrs: mustprogress uwtable
define internal void @_ZN4absl12log_internal12_GLOBAL__N_113WriteToStreamEPKcPv(ptr noundef %0, ptr noundef %1) #0 {
  %.not.i = icmp eq ptr %0, null
  br i1 %.not.i, label %3, label %11

3:                                                ; preds = %2
  %4 = load ptr, ptr %1, align 8, !tbaa !18
  %5 = getelementptr i8, ptr %4, i64 -24
  %6 = load i64, ptr %5, align 8
  %7 = getelementptr inbounds i8, ptr %1, i64 %6
  %8 = getelementptr inbounds nuw i8, ptr %7, i64 32
  %9 = load i32, ptr %8, align 8, !tbaa !126
  %10 = or i32 %9, 1
  tail call void @_ZNSt9basic_iosIcSt11char_traitsIcEE5clearESt12_Ios_Iostate(ptr noundef nonnull align 8 dereferenceable(264) %7, i32 noundef %10)
  br label %_ZStlsISt11char_traitsIcEERSt13basic_ostreamIcT_ES5_PKc.exit

11:                                               ; preds = %2
  %12 = tail call noundef i64 @strlen(ptr noundef nonnull dereferenceable(1) %0) #28
  %13 = tail call noundef nonnull align 8 dereferenceable(8) ptr @_ZSt16__ostream_insertIcSt11char_traitsIcEERSt13basic_ostreamIT_T0_ES6_PKS3_l(ptr noundef nonnull align 8 dereferenceable(8) %1, ptr noundef nonnull %0, i64 noundef %12)
  br label %_ZStlsISt11char_traitsIcEERSt13basic_ostreamIcT_ES5_PKc.exit

_ZStlsISt11char_traitsIcEERSt13basic_ostreamIcT_ES5_PKc.exit: ; preds = %3, %11
  ret void
}